target datalayout = "e-m:e-p270:32:32-p271:32:32-p272:64:64-i64:64-i128:128-f80:128-n8:16:32:64-S128"
target triple = "x86_64-pc-linux-gnu"

; Function Attrs: nounwind uwtable
define i32 @pmix_bfrops_base_std_copy(ptr noundef %0, ptr noundef %1, i16 noundef zeroext %2) #0 {
  %4 = alloca i32, align 4
  %5 = alloca ptr, align 8
  %6 = alloca ptr, align 8
  %7 = alloca i16, align 2
  %8 = alloca i64, align 8
  %9 = alloca ptr, align 8
  %10 = alloca i32, align 4
  store ptr %0, ptr %5, align 8, !tbaa !8
  store ptr %1, ptr %6, align 8, !tbaa !8
  store i16 %2, ptr %7, align 2, !tbaa !9
  call void @llvm.lifetime.start.p0(i64 8, ptr %8) #11
  call void @llvm.lifetime.start.p0(i64 8, ptr %9) #11
  store ptr null, ptr %9, align 8, !tbaa !33
  %11 = load i16, ptr %7, align 2, !tbaa !9
  %12 = zext i16 %11 to i32
  switch i32 %12, label %36 [
    i32 1, label %13
    i32 6, label %14
    i32 11, label %14
    i32 4, label %15
    i32 5, label %16
    i32 2, label %17
    i32 7, label %17
    i32 12, label %17
    i32 51, label %17
    i32 8, label %18
    i32 13, label %18
    i32 45, label %18
    i32 58, label %18
    i32 69, label %18
    i32 9, label %19
    i32 14, label %19
    i32 10, label %20
    i32 15, label %20
    i32 57, label %20
    i32 66, label %20
    i32 67, label %20
    i32 68, label %20
    i32 16, label %21
    i32 18, label %22
    i32 19, label %23
    i32 20, label %24
    i32 40, label %25
    i32 30, label %26
    i32 31, label %27
    i32 32, label %28
    i32 33, label %29
    i32 34, label %30
    i32 35, label %31
    i32 37, label %32
    i32 43, label %33
    i32 71, label %34
    i32 50, label %35
  ]

13:                                               ; preds = %3
  store i64 1, ptr %8, align 8, !tbaa !25
  br label %37

14:                                               ; preds = %3, %3
  store i64 4, ptr %8, align 8, !tbaa !25
  br label %37

15:                                               ; preds = %3
  store i64 8, ptr %8, align 8, !tbaa !25
  br label %37

16:                                               ; preds = %3
  store i64 4, ptr %8, align 8, !tbaa !25
  br label %37

17:                                               ; preds = %3, %3, %3, %3
  store i64 1, ptr %8, align 8, !tbaa !25
  br label %37

18:                                               ; preds = %3, %3, %3, %3, %3
  store i64 2, ptr %8, align 8, !tbaa !25
  br label %37

19:                                               ; preds = %3, %3
  store i64 4, ptr %8, align 8, !tbaa !25
  br label %37

20:                                               ; preds = %3, %3, %3, %3, %3, %3
  store i64 8, ptr %8, align 8, !tbaa !25
  br label %37

21:                                               ; preds = %3
  store i64 4, ptr %8, align 8, !tbaa !25
  br label %37

22:                                               ; preds = %3
  store i64 16, ptr %8, align 8, !tbaa !25
  br label %37

23:                                               ; preds = %3
  store i64 8, ptr %8, align 8, !tbaa !25
  br label %37

24:                                               ; preds = %3
  store i64 4, ptr %8, align 8, !tbaa !25
  br label %37

25:                                               ; preds = %3
  store i64 4, ptr %8, align 8, !tbaa !25
  br label %37

26:                                               ; preds = %3
  store i64 1, ptr %8, align 8, !tbaa !25
  br label %37

27:                                               ; preds = %3
  store i64 8, ptr %8, align 8, !tbaa !25
  br label %37

28:                                               ; preds = %3
  store i64 1, ptr %8, align 8, !tbaa !25
  br label %37

29:                                               ; preds = %3
  store i64 1, ptr %8, align 8, !tbaa !25
  br label %37

30:                                               ; preds = %3
  store i64 1, ptr %8, align 8, !tbaa !25
  br label %37

31:                                               ; preds = %3
  store i64 4, ptr %8, align 8, !tbaa !25
  br label %37

32:                                               ; preds = %3
  store i64 1, ptr %8, align 8, !tbaa !25
  br label %37

33:                                               ; preds = %3
  store i64 1, ptr %8, align 8, !tbaa !25
  br label %37

34:                                               ; preds = %3
  store i64 1, ptr %8, align 8, !tbaa !25
  br label %37

35:                                               ; preds = %3
  store i64 1, ptr %8, align 8, !tbaa !25
  br label %37

36:                                               ; preds = %3
  store i32 -16, ptr %4, align 4
  store i32 1, ptr %10, align 4
  br label %49

37:                                               ; preds = %35, %34, %33, %32, %31, %30, %29, %28, %27, %26, %25, %24, %23, %22, %21, %20, %19, %18, %17, %16, %15, %14, %13
  %38 = load i64, ptr %8, align 8, !tbaa !25
  %39 = call noalias ptr @malloc(i64 noundef %38) #12
  store ptr %39, ptr %9, align 8, !tbaa !33
  %40 = load ptr, ptr %9, align 8, !tbaa !33
  %41 = icmp eq ptr null, %40
  br i1 %41, label %42, label %43

42:                                               ; preds = %37
  store i32 -29, ptr %4, align 4
  store i32 1, ptr %10, align 4
  br label %49

43:                                               ; preds = %37
  %44 = load ptr, ptr %9, align 8, !tbaa !33
  %45 = load ptr, ptr %6, align 8, !tbaa !8
  %46 = load i64, ptr %8, align 8, !tbaa !25
  call void @llvm.memcpy.p0.p0.i64(ptr align 1 %44, ptr align 1 %45, i64 %46, i1 false)
  %47 = load ptr, ptr %9, align 8, !tbaa !33
  %48 = load ptr, ptr %5, align 8, !tbaa !8
  store ptr %47, ptr %48, align 8, !tbaa !8
  store i32 0, ptr %4, align 4
  store i32 1, ptr %10, align 4
  br label %49

49:                                               ; preds = %43, %42, %36
  call void @llvm.lifetime.end.p0(i64 8, ptr %9) #11
  call void @llvm.lifetime.end.p0(i64 8, ptr %8) #11
  %50 = load i32, ptr %4, align 4
  ret i32 %50
}